target datalayout = "e-m:e-p270:32:32-p271:32:32-p272:64:64-i64:64-i128:128-f80:128-n8:16:32:64-S128"
target triple = "x86_64-unknown-linux-gnu"

%"class.EA::UnitTest::Test" = type { ptr, %"class.eastl::basic_string", ptr, i64, i64, ptr, i8, i64 }
%"class.eastl::basic_string" = type { %"class.eastl::compressed_pair" }
%"class.eastl::compressed_pair" = type { %"class.eastl::compressed_pair_imp" }
%"class.eastl::compressed_pair_imp" = type { %"struct.eastl::basic_string<char>::Layout" }
%"struct.eastl::basic_string<char>::Layout" = type { %union.anon }
%union.anon = type { %"struct.eastl::basic_string<char>::HeapLayout" }
%"struct.eastl::basic_string<char>::HeapLayout" = type { ptr, i64, i64 }
%"struct.eastl::basic_string<char>::SSOLayout" = type { [23 x i8], %"struct.eastl::basic_string<char>::SSOLayout::SSOSize" }
%"struct.eastl::basic_string<char>::SSOLayout::SSOSize" = type { i8 }

; Function Attrs: mustprogress nounwind uwtable
define linkonce_odr dso_local noundef nonnull align 1 dereferenceable(1) ptr @_ZN5eastl19compressed_pair_impINS_12basic_stringIcNS_9allocatorEE6LayoutES2_Li2EE6secondEv(ptr noundef nonnull align 8 dereferenceable(24) %this) #1 comdat align 2 {
entry:
  %this.addr = alloca ptr, align 8
  store ptr %this, ptr %this.addr, align 8
  %this1 = load ptr, ptr %this.addr, align 8
  ret ptr %this1
}

; Function Attrs: mustprogress uwtable
define linkonce_odr dso_local noundef nonnull align 1 dereferenceable(1) ptr @_ZN5eastl15compressed_pairINS_12basic_stringIcNS_9allocatorEE6LayoutES2_E6secondEv(ptr noundef nonnull align 8 dereferenceable(24) %this) #2 comdat align 2 {
entry:
  %this.addr = alloca ptr, align 8
  store ptr %this, ptr %this.addr, align 8
  %this1 = load ptr, ptr %this.addr, align 8
  %call = call noundef nonnull align 1 dereferenceable(1) ptr @_ZN5eastl19compressed_pair_impINS_12basic_stringIcNS_9allocatorEE6LayoutES2_Li2EE6secondEv(ptr noundef nonnull align 8 dereferenceable(24) %this1)
  ret ptr %call
}

; Function Attrs: mustprogress nounwind uwtable
define linkonce_odr dso_local noundef nonnull align 1 dereferenceable(1) ptr @_ZN5eastl12basic_stringIcNS_9allocatorEE17internalAllocatorEv(ptr noundef nonnull align 8 dereferenceable(24) %this) #1 comdat align 2 personality ptr @__gxx_personality_v0 {
entry:
  %this.addr = alloca ptr, align 8
  store ptr %this, ptr %this.addr, align 8
  %this1 = load ptr, ptr %this.addr, align 8
  %mPair = getelementptr inbounds %"class.eastl::basic_string", ptr %this1, i32 0, i32 0
  %call = invoke noundef nonnull align 1 dereferenceable(1) ptr @_ZN5eastl15compressed_pairINS_12basic_stringIcNS_9allocatorEE6LayoutES2_E6secondEv(ptr noundef nonnull align 8 dereferenceable(24) %mPair)
          to label %invoke.cont unwind label %terminate.lpad

invoke.cont:                                      ; preds = %entry
  ret ptr %call

terminate.lpad:                                   ; preds = %entry
  %0 = landingpad { ptr, i32 }
          catch ptr null
  %1 = extractvalue { ptr, i32 } %0, 0
  call void @__clang_call_terminate(ptr %1) #17
  unreachable
}

; Function Attrs: mustprogress nounwind uwtable
define linkonce_odr dso_local noundef nonnull align 8 dereferenceable(24) ptr @_ZN5eastl19compressed_pair_impINS_12basic_stringIcNS_9allocatorEE6LayoutES2_Li2EE5firstEv(ptr noundef nonnull align 8 dereferenceable(24) %this) #1 comdat align 2 {
entry:
  %this.addr = alloca ptr, align 8
  store ptr %this, ptr %this.addr, align 8
  %this1 = load ptr, ptr %this.addr, align 8
  %mFirst = getelementptr inbounds %"class.eastl::compressed_pair_imp", ptr %this1, i32 0, i32 0
  ret ptr %mFirst
}

; Function Attrs: mustprogress nounwind uwtable
define linkonce_odr dso_local void @_ZN5eastl9allocator10deallocateEPvm(ptr noundef nonnull align 1 dereferenceable(1) %this, ptr noundef %p, i64 noundef %0) #1 comdat align 2 {
entry:
  %this.addr = alloca ptr, align 8
  %p.addr = alloca ptr, align 8
  %.addr = alloca i64, align 8
  store ptr %this, ptr %this.addr, align 8
  store ptr %p, ptr %p.addr, align 8
  store i64 %0, ptr %.addr, align 8
  %1 = load ptr, ptr %p.addr, align 8
  %isnull = icmp eq ptr %1, null
  br i1 %isnull, label %delete.end, label %delete.notnull

delete.notnull:                                   ; preds = %entry
  call void @_ZdaPv(ptr noundef %1) #15
  br label %delete.end

delete.end:                                       ; preds = %delete.notnull, %entry
  ret void
}

; Function Attrs: mustprogress nounwind uwtable
define linkonce_odr dso_local noundef nonnull align 1 dereferenceable(1) ptr @_ZN5eastl12basic_stringIcNS_9allocatorEE13get_allocatorEv(ptr noundef nonnull align 8 dereferenceable(24) %this) #1 comdat align 2 {
entry:
  %this.addr = alloca ptr, align 8
  store ptr %this, ptr %this.addr, align 8
  %this1 = load ptr, ptr %this.addr, align 8
  %call = call noundef nonnull align 1 dereferenceable(1) ptr @_ZN5eastl12basic_stringIcNS_9allocatorEE17internalAllocatorEv(ptr noundef nonnull align 8 dereferenceable(24) %this1) #13
  ret ptr %call
}

; Function Attrs: mustprogress nounwind uwtable
define linkonce_odr dso_local noundef ptr @_ZN5eastl12basic_stringIcNS_9allocatorEE6Layout11SSOBeginPtrEv(ptr noundef nonnull align 8 dereferenceable(24) %this) #1 comdat align 2 {
entry:
  %this.addr = alloca ptr, align 8
  store ptr %this, ptr %this.addr, align 8
  %this1 = load ptr, ptr %this.addr, align 8
  %0 = getelementptr inbounds %"struct.eastl::basic_string<char>::Layout", ptr %this1, i32 0, i32 0
  %mData = getelementptr inbounds %"struct.eastl::basic_string<char>::SSOLayout", ptr %0, i32 0, i32 0
  %arraydecay = getelementptr inbounds [23 x i8], ptr %mData, i64 0, i64 0
  ret ptr %arraydecay
}

; Function Attrs: mustprogress nounwind uwtable
define linkonce_odr dso_local noundef ptr @_ZN5eastl12basic_stringIcNS_9allocatorEE6Layout12HeapBeginPtrEv(ptr noundef nonnull align 8 dereferenceable(24) %this) #1 comdat align 2 {
entry:
  %this.addr = alloca ptr, align 8
  store ptr %this, ptr %this.addr, align 8
  %this1 = load ptr, ptr %this.addr, align 8
  %0 = getelementptr inbounds %"struct.eastl::basic_string<char>::Layout", ptr %this1, i32 0, i32 0
  %mpBegin = getelementptr inbounds %"struct.eastl::basic_string<char>::HeapLayout", ptr %0, i32 0, i32 0
  %1 = load ptr, ptr %mpBegin, align 8
  ret ptr %1
}

; Function Attrs: mustprogress uwtable
define linkonce_odr dso_local noundef nonnull align 8 dereferenceable(24) ptr @_ZN5eastl15compressed_pairINS_12basic_stringIcNS_9allocatorEE6LayoutES2_E5firstEv(ptr noundef nonnull align 8 dereferenceable(24) %this) #2 comdat align 2 {
entry:
  %this.addr = alloca ptr, align 8
  store ptr %this, ptr %this.addr, align 8
  %this1 = load ptr, ptr %this.addr, align 8
  %call = call noundef nonnull align 8 dereferenceable(24) ptr @_ZN5eastl19compressed_pair_impINS_12basic_stringIcNS_9allocatorEE6LayoutES2_Li2EE5firstEv(ptr noundef nonnull align 8 dereferenceable(24) %this1)
  ret ptr %call
}

; Function Attrs: mustprogress uwtable
define linkonce_odr dso_local void @_ZN5eastl12basic_stringIcNS_9allocatorEE6DoFreeEPcm(ptr noundef nonnull align 8 dereferenceable(24) %this, ptr noundef %p, i64 noundef %n) #2 comdat align 2 {
entry:
  %this.addr = alloca ptr, align 8
  %p.addr = alloca ptr, align 8
  %n.addr = alloca i64, align 8
  store ptr %this, ptr %this.addr, align 8
  store ptr %p, ptr %p.addr, align 8
  store i64 %n, ptr %n.addr, align 8
  %this1 = load ptr, ptr %this.addr, align 8
  %0 = load ptr, ptr %p.addr, align 8
  %tobool = icmp ne ptr %0, null
  br i1 %tobool, label %if.then, label %if.end

if.then:                                          ; preds = %entry
  %call = call noundef nonnull align 1 dereferenceable(1) ptr @_ZN5eastl12basic_stringIcNS_9allocatorEE13get_allocatorEv(ptr noundef nonnull align 8 dereferenceable(24) %this1) #13
  %1 = load ptr, ptr %p.addr, align 8
  %2 = load i64, ptr %n.addr, align 8
  %mul = mul i64 %2, 1
  call void @_ZN5eastl9allocator10deallocateEPvm(ptr noundef nonnull align 1 dereferenceable(1) %call, ptr noundef %1, i64 noundef %mul)
  br label %if.end

if.end:                                           ; preds = %if.then, %entry
  ret void
}

; Function Attrs: mustprogress nounwind uwtable
define linkonce_odr dso_local noundef i64 @_ZNK5eastl12basic_stringIcNS_9allocatorEE6Layout15GetHeapCapacityEv(ptr noundef nonnull align 8 dereferenceable(24) %this) #1 comdat align 2 {
entry:
  %this.addr = alloca ptr, align 8
  store ptr %this, ptr %this.addr, align 8
  %this1 = load ptr, ptr %this.addr, align 8
  %0 = getelementptr inbounds %"struct.eastl::basic_string<char>::Layout", ptr %this1, i32 0, i32 0
  %mnCapacity = getelementptr inbounds %"struct.eastl::basic_string<char>::HeapLayout", ptr %0, i32 0, i32 2
  %1 = load i64, ptr %mnCapacity, align 8
  %and = and i64 %1, 9223372036854775807
  ret i64 %and
}

; Function Attrs: mustprogress nounwind uwtable
define linkonce_odr dso_local noundef ptr @_ZN5eastl12basic_stringIcNS_9allocatorEE6Layout8BeginPtrEv(ptr noundef nonnull align 8 dereferenceable(24) %this) #1 comdat align 2 {
entry:
  %this.addr = alloca ptr, align 8
  store ptr %this, ptr %this.addr, align 8
  %this1 = load ptr, ptr %this.addr, align 8
  %call = call noundef zeroext i1 @_ZNK5eastl12basic_stringIcNS_9allocatorEE6Layout6IsHeapEv(ptr noundef nonnull align 8 dereferenceable(24) %this1) #13
  br i1 %call, label %cond.true, label %cond.false

cond.true:                                        ; preds = %entry
  %call2 = call noundef ptr @_ZN5eastl12basic_stringIcNS_9allocatorEE6Layout12HeapBeginPtrEv(ptr noundef nonnull align 8 dereferenceable(24) %this1) #13
  br label %cond.end

cond.false:                                       ; preds = %entry
  %call3 = call noundef ptr @_ZN5eastl12basic_stringIcNS_9allocatorEE6Layout11SSOBeginPtrEv(ptr noundef nonnull align 8 dereferenceable(24) %this1) #13
  br label %cond.end

cond.end:                                         ; preds = %cond.false, %cond.true
  %cond = phi ptr [ %call2, %cond.true ], [ %call3, %cond.false ]
  ret ptr %cond
}

; Function Attrs: mustprogress nounwind uwtable
define linkonce_odr dso_local noundef zeroext i1 @_ZNK5eastl12basic_stringIcNS_9allocatorEE6Layout6IsHeapEv(ptr noundef nonnull align 8 dereferenceable(24) %this) #1 comdat align 2 {
entry:
  %this.addr = alloca ptr, align 8
  store ptr %this, ptr %this.addr, align 8
  %this1 = load ptr, ptr %this.addr, align 8
  %0 = getelementptr inbounds %"struct.eastl::basic_string<char>::Layout", ptr %this1, i32 0, i32 0
  %mRemainingSizeField = getelementptr inbounds %"struct.eastl::basic_string<char>::SSOLayout", ptr %0, i32 0, i32 1
  %mnRemainingSize = getelementptr inbounds %"struct.eastl::basic_string<char>::SSOLayout::SSOSize", ptr %mRemainingSizeField, i32 0, i32 0
  %1 = load i8, ptr %mnRemainingSize, align 1
  %conv = sext i8 %1 to i64
  %and = and i64 %conv, 128
  %tobool = icmp ne i64 %and, 0
  %lnot = xor i1 %tobool, true
  %lnot2 = xor i1 %lnot, true
  ret i1 %lnot2
}

; Function Attrs: mustprogress nounwind uwtable
define linkonce_odr dso_local noundef nonnull align 8 dereferenceable(24) ptr @_ZN5eastl12basic_stringIcNS_9allocatorEE14internalLayoutEv(ptr noundef nonnull align 8 dereferenceable(24) %this) #1 comdat align 2 personality ptr @__gxx_personality_v0 {
entry:
  %this.addr = alloca ptr, align 8
  store ptr %this, ptr %this.addr, align 8
  %this1 = load ptr, ptr %this.addr, align 8
  %mPair = getelementptr inbounds %"class.eastl::basic_string", ptr %this1, i32 0, i32 0
  %call = invoke noundef nonnull align 8 dereferenceable(24) ptr @_ZN5eastl15compressed_pairINS_12basic_stringIcNS_9allocatorEE6LayoutES2_E5firstEv(ptr noundef nonnull align 8 dereferenceable(24) %mPair)
          to label %invoke.cont unwind label %terminate.lpad

invoke.cont:                                      ; preds = %entry
  ret ptr %call

terminate.lpad:                                   ; preds = %entry
  %0 = landingpad { ptr, i32 }
          catch ptr null
  %1 = extractvalue { ptr, i32 } %0, 0
  call void @__clang_call_terminate(ptr %1) #17
  unreachable
}

; Function Attrs: noreturn nounwind uwtable
define linkonce_odr hidden void @__clang_call_terminate(ptr noundef %0) #10 comdat {
  %2 = call ptr @__cxa_begin_catch(ptr %0) #13
  call void @_ZSt9terminatev() #17
  unreachable
}

; Function Attrs: mustprogress uwtable
define linkonce_odr dso_local void @_ZN5eastl12basic_stringIcNS_9allocatorEE14DeallocateSelfEv(ptr noundef nonnull align 8 dereferenceable(24) %this) #2 comdat align 2 {
entry:
  %this.addr = alloca ptr, align 8
  store ptr %this, ptr %this.addr, align 8
  %this1 = load ptr, ptr %this.addr, align 8
  %call = call noundef nonnull align 8 dereferenceable(24) ptr @_ZN5eastl12basic_stringIcNS_9allocatorEE14internalLayoutEv(ptr noundef nonnull align 8 dereferenceable(24) %this1) #13
  %call2 = call noundef zeroext i1 @_ZNK5eastl12basic_stringIcNS_9allocatorEE6Layout6IsHeapEv(ptr noundef nonnull align 8 dereferenceable(24) %call) #13
  br i1 %call2, label %if.then, label %if.end

if.then:                                          ; preds = %entry
  %call3 = call noundef nonnull align 8 dereferenceable(24) ptr @_ZN5eastl12basic_stringIcNS_9allocatorEE14internalLayoutEv(ptr noundef nonnull align 8 dereferenceable(24) %this1) #13
  %call4 = call noundef ptr @_ZN5eastl12basic_stringIcNS_9allocatorEE6Layout8BeginPtrEv(ptr noundef nonnull align 8 dereferenceable(24) %call3) #13
  %call5 = call noundef nonnull align 8 dereferenceable(24) ptr @_ZN5eastl12basic_stringIcNS_9allocatorEE14internalLayoutEv(ptr noundef nonnull align 8 dereferenceable(24) %this1) #13
  %call6 = call noundef i64 @_ZNK5eastl12basic_stringIcNS_9allocatorEE6Layout15GetHeapCapacityEv(ptr noundef nonnull align 8 dereferenceable(24) %call5) #13
  %add = add i64 %call6, 1
  call void @_ZN5eastl12basic_stringIcNS_9allocatorEE6DoFreeEPcm(ptr noundef nonnull align 8 dereferenceable(24) %this1, ptr noundef %call4, i64 noundef %add)
  br label %if.end

if.end:                                           ; preds = %if.then, %entry
  ret void
}

; Function Attrs: mustprogress nounwind uwtable
define linkonce_odr dso_local void @_ZN5eastl12basic_stringIcNS_9allocatorEED2Ev(ptr noundef nonnull align 8 dereferenceable(24) %this) unnamed_addr #1 comdat align 2 personality ptr @__gxx_personality_v0 {
entry:
  %this.addr = alloca ptr, align 8
  store ptr %this, ptr %this.addr, align 8
  %this1 = load ptr, ptr %this.addr, align 8
  invoke void @_ZN5eastl12basic_stringIcNS_9allocatorEE14DeallocateSelfEv(ptr noundef nonnull align 8 dereferenceable(24) %this1)
          to label %invoke.cont unwind label %terminate.lpad

invoke.cont:                                      ; preds = %entry
  ret void

terminate.lpad:                                   ; preds = %entry
  %0 = landingpad { ptr, i32 }
          catch ptr null
  %1 = extractvalue { ptr, i32 } %0, 0
  call void @__clang_call_terminate(ptr %1) #17
  unreachable
}

; Function Attrs: mustprogress nounwind uwtable
define dso_local void @_ZN2EA8UnitTest4TestD2Ev(ptr noundef nonnull align 8 dereferenceable(80) %this) unnamed_addr #1 align 2 {
entry:
  %this.addr = alloca ptr, align 8
  store ptr %this, ptr %this.addr, align 8
  %this1 = load ptr, ptr %this.addr, align 8
  store ptr getelementptr inbounds ({ [13 x ptr] }, ptr @_ZTVN2EA8UnitTest4TestE, i32 0, i32 0, i32 2), ptr %this1, align 8
  %msTestName = getelementptr inbounds %"class.EA::UnitTest::Test", ptr %this1, i32 0, i32 1
  call void @_ZN5eastl12basic_stringIcNS_9allocatorEED2Ev(ptr noundef nonnull align 8 dereferenceable(24) %msTestName) #13
  ret void
}