; Function Attrs: mustprogress nounwind uwtable
define dso_local void @_ZN2EA8UnitTest4TestD2Ev(ptr nocapture noundef nonnull align 8 dereferenceable(80) %this) unnamed_addr #7 align 2 personality ptr @__gxx_personality_v0 {
entry:
  store ptr getelementptr inbounds ({ [13 x ptr] }, ptr @_ZTVN2EA8UnitTest4TestE, i64 0, i32 0, i64 2), ptr %this, align 8
  %mRemainingSizeField.i.i.i = getelementptr inbounds i8, ptr %this, i64 31
  %0 = load i8, ptr %mRemainingSizeField.i.i.i, align 1
  %tobool.i.i.i = icmp slt i8 %0, 0
  br i1 %tobool.i.i.i, label %if.then.i.i, label %_ZN5eastl12basic_stringIcNS_9allocatorEED2Ev.exit

if.then.i.i:                                      ; preds = %entry
  %msTestName = getelementptr inbounds i8, ptr %this, i64 8
  %1 = load ptr, ptr %msTestName, align 8
  %tobool.not.i.i.i = icmp eq ptr %1, null
  br i1 %tobool.not.i.i.i, label %_ZN5eastl12basic_stringIcNS_9allocatorEED2Ev.exit, label %_ZN5eastl9allocator10deallocateEPvm.exit.i.i.i

_ZN5eastl9allocator10deallocateEPvm.exit.i.i.i:   ; preds = %if.then.i.i
  tail call void @_ZdaPv(ptr noundef nonnull %1) #31
  br label %_ZN5eastl12basic_stringIcNS_9allocatorEED2Ev.exit

_ZN5eastl12basic_stringIcNS_9allocatorEED2Ev.exit: ; preds = %entry, %if.then.i.i, %_ZN5eastl9allocator10deallocateEPvm.exit.i.i.i
  ret void
}